; ModuleID = '58/1186.c'
source_filename = "58/1186.c"
target datalayout = "e-m:e-p270:32:32-p271:32:32-p272:64:64-i64:64-f80:128-n8:16:32:64-S128"
target triple = "x86_64-pc-linux-gnu"

@.str = private unnamed_addr constant [3 x i8] c"%d\00", align 1
@.str.1 = private unnamed_addr constant [3 x i8] c"1\0A\00", align 1
@.str.2 = private unnamed_addr constant [3 x i8] c"0\0A\00", align 1

; Function Attrs: noinline nounwind uwtable
define dso_local i32 @main() #0 {
  %1 = alloca i32, align 4
  %2 = alloca i32, align 4
  %3 = alloca i32, align 4
  %4 = alloca i32, align 4
  %5 = alloca [81 x i8], align 16
  %6 = alloca i8*, align 8
  store i32 0, i32* %1, align 4
  store i32 0, i32* %2, align 4
  store i32 0, i32* %3, align 4
  %7 = call i32 (i8*, ...) @__isoc99_scanf(i8* getelementptr inbounds ([3 x i8], [3 x i8]* @.str, i64 0, i64 0), i32* %4)
  %8 = call i32 @getchar()
  br label %9

9:                                                ; preds = %98, %0
  %10 = load i32, i32* %4, align 4
  %11 = icmp sgt i32 %10, 0
  br i1 %11, label %12, label %101

12:                                               ; preds = %9
  %13 = getelementptr inbounds [81 x i8], [81 x i8]* %5, i64 0, i64 0
  %14 = call i32 (i8*, ...) bitcast (i32 (...)* @gets to i32 (i8*, ...)*)(i8* %13)
  %15 = getelementptr inbounds [81 x i8], [81 x i8]* %5, i64 0, i64 0
  store i8* %15, i8** %6, align 8
  %16 = load i8*, i8** %6, align 8
  %17 = load i8, i8* %16, align 1
  %18 = sext i8 %17 to i32
  %19 = icmp eq i32 %18, 95
  br i1 %19, label %40, label %20

20:                                               ; preds = %12
  %21 = load i8*, i8** %6, align 8
  %22 = load i8, i8* %21, align 1
  %23 = sext i8 %22 to i32
  %24 = icmp sge i32 %23, 97
  br i1 %24, label %25, label %30

25:                                               ; preds = %20
  %26 = load i8*, i8** %6, align 8
  %27 = load i8, i8* %26, align 1
  %28 = sext i8 %27 to i32
  %29 = icmp sle i32 %28, 122
  br i1 %29, label %40, label %30

30:                                               ; preds = %25, %20
  %31 = load i8*, i8** %6, align 8
  %32 = load i8, i8* %31, align 1
  %33 = sext i8 %32 to i32
  %34 = icmp sge i32 %33, 65
  br i1 %34, label %35, label %41

35:                                               ; preds = %30
  %36 = load i8*, i8** %6, align 8
  %37 = load i8, i8* %36, align 1
  %38 = sext i8 %37 to i32
  %39 = icmp sle i32 %38, 90
  br i1 %39, label %40, label %41

40:                                               ; preds = %35, %25, %12
  store i32 1, i32* %3, align 4
  br label %42

41:                                               ; preds = %35, %30
  store i32 0, i32* %3, align 4
  br label %42

42:                                               ; preds = %41, %40
  br label %43

43:                                               ; preds = %85, %42
  %44 = load i8*, i8** %6, align 8
  %45 = load i8, i8* %44, align 1
  %46 = sext i8 %45 to i32
  %47 = icmp ne i32 %46, 0
  br i1 %47, label %48, label %88

48:                                               ; preds = %43
  %49 = load i8*, i8** %6, align 8
  %50 = load i8, i8* %49, align 1
  %51 = sext i8 %50 to i32
  %52 = icmp eq i32 %51, 95
  br i1 %52, label %83, label %53

53:                                               ; preds = %48
  %54 = load i8*, i8** %6, align 8
  %55 = load i8, i8* %54, align 1
  %56 = sext i8 %55 to i32
  %57 = icmp sge i32 %56, 97
  br i1 %57, label %58, label %63

58:                                               ; preds = %53
  %59 = load i8*, i8** %6, align 8
  %60 = load i8, i8* %59, align 1
  %61 = sext i8 %60 to i32
  %62 = icmp sle i32 %61, 122
  br i1 %62, label %83, label %63

63:                                               ; preds = %58, %53
  %64 = load i8*, i8** %6, align 8
  %65 = load i8, i8* %64, align 1
  %66 = sext i8 %65 to i32
  %67 = icmp sge i32 %66, 65
  br i1 %67, label %68, label %73

68:                                               ; preds = %63
  %69 = load i8*, i8** %6, align 8
  %70 = load i8, i8* %69, align 1
  %71 = sext i8 %70 to i32
  %72 = icmp sle i32 %71, 90
  br i1 %72, label %83, label %73

73:                                               ; preds = %68, %63
  %74 = load i8*, i8** %6, align 8
  %75 = load i8, i8* %74, align 1
  %76 = sext i8 %75 to i32
  %77 = icmp sge i32 %76, 48
  br i1 %77, label %78, label %84

78:                                               ; preds = %73
  %79 = load i8*, i8** %6, align 8
  %80 = load i8, i8* %79, align 1
  %81 = sext i8 %80 to i32
  %82 = icmp sle i32 %81, 57
  br i1 %82, label %83, label %84

83:                                               ; preds = %78, %68, %58, %48
  store i32 1, i32* %2, align 4
  br label %85

84:                                               ; preds = %78, %73
  store i32 0, i32* %2, align 4
  br label %88

85:                                               ; preds = %83
  %86 = load i8*, i8** %6, align 8
  %87 = getelementptr inbounds i8, i8* %86, i32 1
  store i8* %87, i8** %6, align 8
  br label %43

88:                                               ; preds = %84, %43
  %89 = load i32, i32* %2, align 4
  %90 = icmp eq i32 %89, 1
  br i1 %90, label %91, label %96

91:                                               ; preds = %88
  %92 = load i32, i32* %3, align 4
  %93 = icmp eq i32 %92, 1
  br i1 %93, label %94, label %96

94:                                               ; preds = %91
  %95 = call i32 (i8*, ...) @printf(i8* getelementptr inbounds ([3 x i8], [3 x i8]* @.str.1, i64 0, i64 0))
  br label %98

96:                                               ; preds = %91, %88
  %97 = call i32 (i8*, ...) @printf(i8* getelementptr inbounds ([3 x i8], [3 x i8]* @.str.2, i64 0, i64 0))
  br label %98

98:                                               ; preds = %96, %94
  %99 = load i32, i32* %4, align 4
  %100 = add nsw i32 %99, -1
  store i32 %100, i32* %4, align 4
  br label %9

101:                                              ; preds = %9
  ret i32 0
}

declare dso_local i32 @__isoc99_scanf(i8*, ...) #1

declare dso_local i32 @getchar() #1

declare dso_local i32 @gets(...) #1

declare dso_local i32 @printf(i8*, ...) #1


!llvm.module.flags = !{!0}
!llvm.ident = !{!1}

!0 = !{i32 1, !"wchar_size", i32 4}
!1 = !{!"clang version 10.0.0-4ubuntu1 "}
